Certificate:
    Data:
        Version: 3 (0x2)
        Serial Number: 1 (0x1)
    Signature Algorithm: sha256WithRSAEncryption
        Issuer: CN=QUIC Server Root CA
        Validity
            Not Before: Jan 25 09:30:43 2018 GMT
            Not After : Jan  1 09:30:43 2118 GMT
        Subject: C=US, ST=California, L=Mountain View, O=QUIC Server, CN=127.0.0.1
        Subject Public Key Info:
            Public Key Algorithm: rsaEncryption
                Public-Key: (2048 bit)
                Modulus:
                    00:eb:28:22:0f:e2:9b:a1:b2:a4:4b:87:0b:b8:1d:
                    81:ee:79:ac:c9:e5:da:1d:36:e2:38:04:ee:b0:59:
                    f5:8c:07:e2:ee:06:e3:61:a6:d1:d4:20:7f:7c:56:
                    9b:2b:c5:5f:85:73:b9:1b:03:6e:8e:6b:c9:11:b1:
                    a3:e0:a1:4b:c3:70:a4:1d:d3:aa:8b:17:55:bd:bf:
                    f4:a6:6b:83:f3:65:c5:c7:06:94:ba:1e:6a:c8:95:
                    3f:0b:65:28:b2:72:aa:b5:86:32:90:14:91:a0:8f:
                    d0:6b:db:2d:77:cb:31:13:f6:bb:76:0b:a3:3f:61:
                    69:a8:6f:fa:b3:59:96:6d:38:bf:5d:f7:79:19:88:
                    61:9f:8f:29:43:62:7b:28:df:8e:77:b0:e7:4d:50:
                    ce:76:1c:7d:e6:a8:14:6b:3a:92:5e:a4:8f:4e:fd:
                    b5:06:c2:5d:7c:9c:91:89:76:50:bf:24:50:f5:08:
                    07:14:44:bf:4c:c2:fa:e8:95:d0:16:78:b4:2b:14:
                    aa:f4:e6:18:cc:b3:96:a6:41:78:3c:33:83:f9:7b:
                    b3:de:18:60:55:85:01:3b:75:f5:6c:b7:ee:0c:27:
                    3c:d4:bc:f6:51:56:13:49:e1:95:8e:25:5c:0c:eb:
                    a5:a8:60:2f:bd:b9:a3:70:70:f2:f3:14:07:af:e9:
                    85:39
                Exponent: 65537 (0x10001)
        X509v3 extensions:
            X509v3 Basic Constraints: critical
                CA:FALSE
            X509v3 Subject Key Identifier: 
                82:7D:70:9F:92:AA:0A:08:EB:48:40:30:D3:8D:67:ED:28:33:C8:DC
            X509v3 Authority Key Identifier: 
                keyid:A2:22:FE:23:07:6A:E0:06:DC:49:31:B4:20:58:93:75:1A:60:67:D9

            X509v3 Extended Key Usage: 
                TLS Web Server Authentication, TLS Web Client Authentication
            X509v3 Subject Alternative Name: 
                DNS:www.example.org, DNS:mail.example.org, DNS:mail.example.com, IP Address:127.0.0.1
    Signature Algorithm: sha256WithRSAEncryption
         47:bc:24:c7:54:b3:1f:a2:86:3a:4b:67:d5:ad:91:af:d9:c3:
         5d:05:08:df:23:51:c2:d4:1e:d4:d5:f9:de:7b:bf:7f:4e:e3:
         77:8e:5e:6a:49:cd:4a:a3:fd:f9:9b:88:42:4f:cf:25:fc:4c:
         88:98:98:5f:df:d1:92:0c:80:ba:e8:14:34:3c:e7:58:cf:92:
         61:6a:66:b2:18:bc:e2:e4:59:6f:ca:01:28:d1:56:13:c4:13:
         e2:91:fa:77:37:9b:46:3a:93:c0:cb:f1:1a:5b:5d:80:82:d8:
         0b:57:03:13:e2:e7:04:30:9d:a9:4e:67:e7:c8:85:7b:02:45:
         68:f2:b7:f8:66:c3:94:93:d4:35:6f:45:55:a1:f8:4f:bf:2e:
         3c:32:22:00:07:63:9b:9e:72:49:18:d5:c3:c8:3c:8a:89:d0:
         ab:9b:74:29:8e:7a:20:85:65:78:79:08:5c:ff:84:52:fe:61:
         77:40:a6:be:fc:4f:7d:ea:dc:d2:38:e4:0c:35:3b:8a:2f:30:
         99:e2:3f:7e:95:57:15:f3:bb:f5:53:6e:80:38:12:69:bd:f0:
         20:39:7b:fe:08:a1:30:69:39:b9:f8:b5:d8:d9:af:cf:18:c3:
         92:b5:41:f2:c7:8f:0f:e6:13:4a:28:b3:55:bb:29:d6:62:1a:
         33:21:91:e8
-----BEGIN CERTIFICATE-----
MIIDtjCCAp6gAwIBAgIBATANBgkqhkiG9w0BAQsFADAeMRwwGgYDVQQDDBNRVUlD
IFNlcnZlciBSb290IENBMCAXDTE4MDEyNTA5MzA0M1oYDzIxMTgwMTAxMDkzMDQz
WjBkMQswCQYDVQQGEwJVUzETMBEGA1UECAwKQ2FsaWZvcm5pYTEWMBQGA1UEBwwN
TW91bnRhaW4gVmlldzEUMBIGA1UECgwLUVVJQyBTZXJ2ZXIxEjAQBgNVBAMMCTEy
Ny4wLjAuMTCCASIwDQYJKoZIhvcNAQEBBQADggEPADCCAQoCggEBAOsoIg/im6Gy
pEuHC7gdge55rMnl2h024jgE7rBZ9YwH4u4G42Gm0dQgf3xWmyvFX4VzuRsDbo5r
yRGxo+ChS8NwpB3TqosXVb2/9KZrg/NlxccGlLoeasiVPwtlKLJyqrWGMpAUkaCP
0GvbLXfLMRP2u3YLoz9haahv+rNZlm04v133eRmIYZ+PKUNieyjfjnew501QznYc
feaoFGs6kl6kj079tQbCXXyckYl2UL8kUPUIBxREv0zC+uiV0BZ4tCsUqvTmGMyz
lqZBeDwzg/l7s94YYFWFATt19Wy37gwnPNS89lFWE0nhlY4lXAzrpahgL725o3Bw
8vMUB6/phTkCAwEAAaOBtjCBszAMBgNVHRMBAf8EAjAAMB0GA1UdDgQWBBSCfXCf
kqoKCOtIQDDTjWftKDPI3DAfBgNVHSMEGDAWgBSiIv4jB2rgBtxJMbQgWJN1GmBn
2TAdBgNVHSUEFjAUBggrBgEFBQcDAQYIKwYBBQUHAwIwRAYDVR0RBD0wO4IPd3d3
LmV4YW1wbGUub3JnghBtYWlsLmV4YW1wbGUub3JnghBtYWlsLmV4YW1wbGUuY29t
hwR/AAABMA0GCSqGSIb3DQEBCwUAA4IBAQBHvCTHVLMfooY6S2fVrZGv2cNdBQjf
I1HC1B7U1fnee79/TuN3jl5qSc1Ko/35m4hCT88l/EyImJhf39GSDIC66BQ0POdY
z5JhamayGLzi5FlvygEo0VYTxBPikfp3N5tGOpPAy/EaW12AgtgLVwMT4ucEMJ2p
TmfnyIV7AkVo8rf4ZsOUk9Q1b0VVofhPvy48MiIAB2ObnnJJGNXDyDyKidCrm3Qp
jnoghWV4eQhc/4RS/mF3QKa+/E996tzSOOQMNTuKLzCZ4j9+lVcV87v1U26AOBJp
vfAgOXv+CKEwaTm5+LXY2a/PGMOStUHyx48P5hNKKLNVuynWYhozIZHo
-----END CERTIFICATE-----
