Certificate:
    Data:
        Version: 3 (0x2)
        Serial Number: 14970744584802034468 (0xcfc2c4e1a83a6324)
    Signature Algorithm: sha256WithRSAEncryption
        Issuer: CN=QUIC Server Root CA
        Validity
            Not Before: Sep 27 07:53:37 2016 GMT
            Not After : Sep  3 07:53:37 2116 GMT
        Subject: CN=QUIC Server Root CA
        Subject Public Key Info:
            Public Key Algorithm: rsaEncryption
                Public-Key: (2048 bit)
                Modulus:
                    00:d8:85:44:5d:c8:ad:3d:cb:9e:78:ed:6b:5b:f9:
                    22:45:6e:3c:c5:b0:67:45:b5:ca:a1:7f:93:8d:0e:
                    da:78:2c:61:dd:2c:a5:53:f4:2c:1a:7e:a1:09:95:
                    c5:e3:39:53:a8:61:ee:d1:b2:88:da:cb:e1:a9:1a:
                    16:62:c1:b6:83:32:f6:de:c5:7d:26:a4:3c:03:db:
                    b8:c5:7b:45:24:d0:70:bb:78:a7:99:2c:ba:b0:50:
                    b8:8b:89:a1:94:50:59:8b:b3:ab:cc:27:5e:27:c9:
                    45:a2:57:a4:44:54:fd:3b:f4:eb:f1:be:27:3a:f8:
                    bf:2b:b7:0f:d4:e8:d2:4f:9d:dd:70:82:31:25:de:
                    ad:e9:22:a8:02:64:ee:88:5f:7c:ad:ce:27:f4:81:
                    6b:87:ba:f3:b9:64:7e:cc:5b:63:7e:20:e2:21:b8:
                    d6:7f:11:cf:93:57:3a:98:aa:bc:64:1f:08:31:9a:
                    ce:7e:1b:fa:41:c5:49:bb:ad:f6:e6:6a:b3:2c:55:
                    06:3e:b2:33:0e:82:56:d1:48:eb:0e:a0:e1:17:5d:
                    64:5f:a4:9c:73:0c:c8:30:e1:f4:8c:6b:ba:1f:89:
                    f0:03:6a:82:a0:f0:49:8b:ff:76:cb:af:5e:37:e9:
                    9f:24:7e:6c:b3:16:3f:02:c0:db:6f:d2:b9:63:92:
                    52:a1
                Exponent: 65537 (0x10001)
        X509v3 extensions:
            X509v3 Basic Constraints: critical
                CA:TRUE
            X509v3 Subject Key Identifier: 
                9E:92:3A:F3:20:36:3F:69:CC:3F:22:DA:41:F6:3A:0F:9A:22:EE:F4
            X509v3 Key Usage: critical
                Certificate Sign, CRL Sign
    Signature Algorithm: sha256WithRSAEncryption
         d3:a4:86:2d:4b:11:21:22:20:37:5e:6e:d6:65:36:52:39:67:
         fb:cd:8d:b7:c8:d1:b6:73:49:19:97:49:93:a1:f0:1a:35:a0:
         06:2a:f3:ac:30:e7:1e:bb:4a:05:db:41:21:46:31:c0:37:5e:
         36:fc:96:a8:88:ee:4b:0b:79:ef:83:db:ed:ad:2f:15:ab:b0:
         af:6e:a3:70:4e:14:7e:b4:43:38:bb:e7:ae:1e:20:b0:7a:83:
         97:52:24:52:c0:10:9c:e5:58:3d:88:eb:fa:bb:18:d4:b7:5a:
         4c:c0:ea:ad:f2:d7:f9:cf:09:68:a8:19:ef:3e:84:a2:e8:0f:
         f1:49:66:64:56:a2:a4:53:b7:3c:e9:52:02:c7:d5:c5:cd:41:
         b5:68:7c:ee:ec:3f:f4:96:c6:e0:4e:5d:ad:b0:a8:ad:fc:24:
         8d:8d:6d:14:1a:a2:3a:ca:da:8c:83:a7:f3:a9:14:43:3f:43:
         2e:c0:a0:97:88:83:59:0a:0c:27:a2:73:d4:09:57:ec:2d:f2:
         e9:39:7f:5a:53:23:32:0a:7b:24:36:0c:fe:30:53:a7:13:fa:
         ab:a8:f1:ea:9c:5f:f2:1a:c6:a1:15:80:28:b2:1b:48:ae:29:
         f5:c1:2d:10:c3:55:d9:08:84:9f:37:72:9d:54:1a:e0:4e:5f:
         98:17:61:51
-----BEGIN CERTIFICATE-----
MIIDAzCCAeugAwIBAgIJAM/CxOGoOmMkMA0GCSqGSIb3DQEBCwUAMB4xHDAaBgNV
BAMME1FVSUMgU2VydmVyIFJvb3QgQ0EwIBcNMTYwOTI3MDc1MzM3WhgPMjExNjA5
MDMwNzUzMzdaMB4xHDAaBgNVBAMME1FVSUMgU2VydmVyIFJvb3QgQ0EwggEiMA0G
CSqGSIb3DQEBAQUAA4IBDwAwggEKAoIBAQDYhURdyK09y5547Wtb+SJFbjzFsGdF
tcqhf5ONDtp4LGHdLKVT9CwafqEJlcXjOVOoYe7Rsojay+GpGhZiwbaDMvbexX0m
pDwD27jFe0Uk0HC7eKeZLLqwULiLiaGUUFmLs6vMJ14nyUWiV6REVP079Ovxvic6
+L8rtw/U6NJPnd1wgjEl3q3pIqgCZO6IX3ytzif0gWuHuvO5ZH7MW2N+IOIhuNZ/
Ec+TVzqYqrxkHwgxms5+G/pBxUm7rfbmarMsVQY+sjMOglbRSOsOoOEXXWRfpJxz
DMgw4fSMa7ofifADaoKg8EmL/3bLr1436Z8kfmyzFj8CwNtv0rljklKhAgMBAAGj
QjBAMA8GA1UdEwEB/wQFMAMBAf8wHQYDVR0OBBYEFJ6SOvMgNj9pzD8i2kH2Og+a
Iu70MA4GA1UdDwEB/wQEAwIBBjANBgkqhkiG9w0BAQsFAAOCAQEA06SGLUsRISIg
N15u1mU2Ujln+82Nt8jRtnNJGZdJk6HwGjWgBirzrDDnHrtKBdtBIUYxwDdeNvyW
qIjuSwt574Pb7a0vFauwr26jcE4UfrRDOLvnrh4gsHqDl1IkUsAQnOVYPYjr+rsY
1LdaTMDqrfLX+c8JaKgZ7z6EougP8UlmZFaipFO3POlSAsfVxc1BtWh87uw/9JbG
4E5drbCorfwkjY1tFBqiOsrajIOn86kUQz9DLsCgl4iDWQoMJ6Jz1AlX7C3y6Tl/
WlMjMgp7JDYM/jBTpxP6q6jx6pxf8hrGoRWAKLIbSK4p9cEtEMNV2QiEnzdynVQa
4E5fmBdhUQ==
-----END CERTIFICATE-----
