Certificate:
    Data:
        Version: 3 (0x2)
        Serial Number: 15729376718581530259 (0xda49f8c9a959fe93)
    Signature Algorithm: sha256WithRSAEncryption
        Issuer: CN=QUIC Server Root CA
        Validity
            Not Before: Aug 16 08:03:52 2016 GMT
            Not After : Aug 19 08:03:52 2116 GMT
        Subject: CN=QUIC Server Root CA
        Subject Public Key Info:
            Public Key Algorithm: rsaEncryption
                Public-Key: (2048 bit)
                Modulus:
                    00:d5:02:ea:09:1a:ea:a8:ae:cc:8d:11:9f:1b:31:
                    50:bb:00:69:29:f0:55:0f:fe:85:70:a0:47:11:ca:
                    2f:bd:c0:a4:ad:f4:da:b5:2f:8e:4a:53:8c:f1:4a:
                    8d:af:bd:24:a8:22:7d:91:0e:44:97:83:ab:4e:7f:
                    ea:8b:45:a5:ca:9f:72:67:46:e4:90:1b:0e:b7:30:
                    2d:13:49:e2:3d:8a:36:e4:6a:3a:ea:96:9a:e2:44:
                    c2:c7:59:13:1d:e4:01:15:b2:24:93:44:08:26:8a:
                    a8:d7:60:82:20:c1:ce:2d:ef:e0:75:21:aa:22:fe:
                    33:ed:8f:bb:ac:b4:e1:71:da:7b:a0:1b:df:f3:9f:
                    09:50:51:d3:7c:b8:f1:34:d9:5a:8d:a8:a3:af:c0:
                    f5:e4:dc:70:4d:47:7e:e5:b3:34:2e:f0:b8:bc:52:
                    c9:ed:ba:b2:27:38:80:9c:62:d6:d9:9d:e4:8b:60:
                    7a:1d:e8:60:99:96:49:64:44:d7:f0:7e:db:e4:5a:
                    34:31:3e:e0:5f:a5:71:00:b4:b5:37:7d:0d:1e:93:
                    5c:b9:4b:5e:b6:05:eb:45:cb:32:6e:7d:d5:8a:eb:
                    7a:19:12:f3:74:ee:2a:e6:92:ce:1c:48:88:5a:00:
                    5c:e5:56:15:32:4b:f7:fb:c2:37:3a:4c:ae:0f:95:
                    c9:df
                Exponent: 65537 (0x10001)
        X509v3 extensions:
            X509v3 Basic Constraints: critical
                CA:TRUE
            X509v3 Subject Key Identifier: 
                78:23:72:E6:B6:E1:03:E3:08:E4:9A:F3:A9:AA:74:D1:3C:DD:67:9A
            X509v3 Key Usage: critical
                Certificate Sign, CRL Sign
    Signature Algorithm: sha256WithRSAEncryption
         3b:cb:cd:f5:f3:88:95:c8:4b:53:54:2b:c5:00:e5:99:4c:64:
         f5:34:14:a8:55:95:12:fa:5c:aa:5c:98:b9:b6:8c:12:b3:6c:
         4e:ae:d5:6f:a4:28:d3:0c:c6:7d:08:ba:fc:cf:9b:99:b7:d6:
         a0:e3:31:91:4f:94:43:f8:0d:f7:f7:44:38:2d:27:d2:e8:fa:
         d3:60:5a:4d:65:3e:b8:c6:f7:5e:0b:5e:bd:15:17:f9:e2:c6:
         5f:af:d8:f7:69:9c:ee:ea:3e:71:12:f1:7d:80:ea:6d:1c:4d:
         f0:a7:93:2e:d4:35:48:7c:74:00:3c:06:4a:4b:67:1e:14:49:
         27:c9:e5:07:03:17:a4:a5:43:ea:c1:1a:7f:3b:a8:9d:95:a9:
         d0:40:49:22:1c:46:f9:d1:12:81:7e:44:0b:94:08:d6:aa:25:
         18:e0:8b:68:50:c2:73:75:9d:e7:a4:20:20:c7:b8:11:46:ca:
         b8:e4:4d:c5:b6:f2:c9:47:4d:00:ab:9a:cf:ef:72:4a:e6:30:
         81:74:5c:39:0a:c5:23:5d:8a:53:91:6a:e5:68:e7:a2:57:f4:
         e1:37:5b:4a:bc:e3:cb:37:ba:89:f2:23:d7:2a:c6:6b:73:a2:
         aa:70:bd:5b:64:9a:2d:1f:9d:8e:31:01:64:66:94:67:42:bf:
         88:80:45:be
-----BEGIN CERTIFICATE-----
MIIDATCCAemgAwIBAgIJANpJ+MmpWf6TMA0GCSqGSIb3DQEBCwUAMB4xHDAaBgNV
BAMME1FVSUMgU2VydmVyIFJvb3QgQ0EwHhcNMTYwODE2MDgwMzUyWhcNMTYwODE5
MDgwMzUyWjAeMRwwGgYDVQQDDBNRVUlDIFNlcnZlciBSb290IENBMIIBIjANBgkq
hkiG9w0BAQEFAAOCAQ8AMIIBCgKCAQEA1QLqCRrqqK7MjRGfGzFQuwBpKfBVD/6F
cKBHEcovvcCkrfTatS+OSlOM8UqNr70kqCJ9kQ5El4OrTn/qi0Wlyp9yZ0bkkBsO
tzAtE0niPYo25Go66paa4kTCx1kTHeQBFbIkk0QIJoqo12CCIMHOLe/gdSGqIv4z
7Y+7rLThcdp7oBvf858JUFHTfLjxNNlajaijr8D15NxwTUd+5bM0LvC4vFLJ7bqy
JziAnGLW2Z3ki2B6HehgmZZJZETX8H7b5Fo0MT7gX6VxALS1N30NHpNcuUtetgXr
Rcsybn3Viut6GRLzdO4q5pLOHEiIWgBc5VYVMkv3+8I3OkyuD5XJ3wIDAQABo0Iw
QDAPBgNVHRMBAf8EBTADAQH/MB0GA1UdDgQWBBR4I3LmtuED4wjkmvOpqnTRPN1n
mjAOBgNVHQ8BAf8EBAMCAQYwDQYJKoZIhvcNAQELBQADggEBADvLzfXziJXIS1NU
K8UA5ZlMZPU0FKhVlRL6XKpcmLm2jBKzbE6u1W+kKNMMxn0IuvzPm5m31qDjMZFP
lEP4Dff3RDgtJ9Lo+tNgWk1lPrjG914LXr0VF/nixl+v2PdpnO7qPnES8X2A6m0c
TfCnky7UNUh8dAA8BkpLZx4USSfJ5QcDF6SlQ+rBGn87qJ2VqdBASSIcRvnREoF+
RAuUCNaqJRjgi2hQwnN1neekICDHuBFGyrjkTcW28slHTQCrms/vckrmMIF0XDkK
xSNdilORauVo56JX9OE3W0q848s3uonyI9cqxmtzoqpwvVtkmi0fnY4xAWRmlGdC
v4iARb4=
-----END CERTIFICATE-----
