Certificate:
    Data:
        Version: 3 (0x2)
        Serial Number: 1 (0x1)
    Signature Algorithm: sha256WithRSAEncryption
        Issuer: CN=QUIC Server Root CA
        Validity
            Not Before: Sep 27 07:53:37 2016 GMT
            Not After : Sep  3 07:53:37 2116 GMT
        Subject: C=US, ST=California, L=Mountain View, O=QUIC Server, CN=127.0.0.1
        Subject Public Key Info:
            Public Key Algorithm: rsaEncryption
                Public-Key: (2048 bit)
                Modulus:
                    00:c8:64:73:4c:58:43:d2:97:f4:97:63:14:29:8b:
                    56:e2:e6:cd:19:12:34:f5:8e:5d:6e:8e:48:5d:56:
                    f7:aa:46:08:c6:f7:2e:bd:83:48:fd:9d:e6:cf:96:
                    5c:20:b6:7a:7b:f6:67:68:78:28:c5:24:24:dc:e5:
                    da:ea:ca:b9:c0:b0:7a:5b:1b:7f:a6:a0:09:75:6c:
                    cc:52:30:88:6a:a6:b8:e4:77:a0:d1:97:38:30:6d:
                    e3:16:d8:e8:85:7d:3a:9e:94:9f:6c:a4:b9:47:fa:
                    33:f0:bf:a9:4a:0c:70:56:31:46:1f:3b:f1:22:c5:
                    1d:2f:7c:56:54:f1:1e:04:09:5e:bb:e1:f2:a3:bf:
                    b1:9e:a4:8f:74:ac:e8:18:1a:c2:e4:eb:dc:6f:b1:
                    69:16:f3:3f:83:b1:0b:f8:05:a8:74:db:d1:ff:89:
                    0d:c8:97:e3:29:2c:2b:ac:6e:46:d0:d7:04:95:49:
                    49:a1:d4:b8:29:f3:13:f0:d7:42:0b:33:99:b7:b4:
                    1c:1e:71:1e:71:ee:2a:47:d3:d7:35:4d:18:28:1e:
                    c9:98:fb:3b:98:f0:0d:c8:59:d0:48:0a:84:19:64:
                    ca:00:10:8b:a5:ed:af:09:c9:22:76:ad:ef:17:fd:
                    bf:93:b7:82:be:16:aa:3e:d6:19:47:a6:f6:e9:2e:
                    f7:47
                Exponent: 65537 (0x10001)
        X509v3 extensions:
            X509v3 Basic Constraints: critical
                CA:FALSE
            X509v3 Subject Key Identifier: 
                E1:3A:94:16:C3:82:2B:12:5E:4C:E9:78:8E:A4:C5:1B:AC:9C:B0:D3
            X509v3 Authority Key Identifier: 
                keyid:9E:92:3A:F3:20:36:3F:69:CC:3F:22:DA:41:F6:3A:0F:9A:22:EE:F4

            X509v3 Extended Key Usage: 
                TLS Web Server Authentication, TLS Web Client Authentication
            X509v3 Subject Alternative Name: 
                DNS:www.example.org, DNS:mail.example.org, DNS:mail.example.com, IP Address:127.0.0.1
    Signature Algorithm: sha256WithRSAEncryption
         85:5e:28:0b:46:c9:bc:fd:7d:db:48:ad:cd:2a:77:aa:6b:6e:
         2c:59:ba:f1:42:f8:90:91:e0:1a:bc:ac:61:4b:23:b9:3c:44:
         ce:da:3c:35:db:92:76:e4:ce:f3:6b:72:a9:e4:ab:4a:71:50:
         3c:0a:f7:5f:d5:35:dc:53:33:38:6d:c3:c6:61:d8:88:cc:2b:
         ff:73:61:62:8c:dd:a3:ea:05:c5:a0:79:fa:ba:b6:d5:77:bb:
         6d:25:a1:ab:af:cb:c5:4a:5a:c4:3a:83:14:3c:a5:a2:c4:51:
         d6:a8:3c:97:aa:38:4c:9e:94:7d:3d:ae:b6:e6:ec:23:e1:3f:
         72:18:c2:64:17:e9:96:6f:a4:14:75:36:a6:e8:5d:ee:a1:26:
         e3:07:71:70:b6:52:d6:d6:8f:2e:d0:3a:46:53:8d:24:b1:48:
         db:3a:e3:6d:28:0d:b3:fd:fa:c1:f2:78:c4:26:a5:fb:64:8c:
         46:09:51:04:03:b9:0e:8b:96:67:10:63:ea:d6:b9:16:c7:7a:
         3d:a4:94:77:75:b6:81:d4:75:4c:f0:6c:7e:fe:6f:db:f1:32:
         ba:ff:56:c1:d7:49:8b:02:58:d7:df:8b:1c:e8:56:b9:a5:5d:
         fc:0f:c9:93:c4:bd:67:cf:da:39:d5:83:a8:c1:72:8d:7b:67:
         25:3d:14:9d
-----BEGIN CERTIFICATE-----
MIIDtjCCAp6gAwIBAgIBATANBgkqhkiG9w0BAQsFADAeMRwwGgYDVQQDDBNRVUlD
IFNlcnZlciBSb290IENBMCAXDTE2MDkyNzA3NTMzN1oYDzIxMTYwOTAzMDc1MzM3
WjBkMQswCQYDVQQGEwJVUzETMBEGA1UECAwKQ2FsaWZvcm5pYTEWMBQGA1UEBwwN
TW91bnRhaW4gVmlldzEUMBIGA1UECgwLUVVJQyBTZXJ2ZXIxEjAQBgNVBAMMCTEy
Ny4wLjAuMTCCASIwDQYJKoZIhvcNAQEBBQADggEPADCCAQoCggEBAMhkc0xYQ9KX
9JdjFCmLVuLmzRkSNPWOXW6OSF1W96pGCMb3Lr2DSP2d5s+WXCC2env2Z2h4KMUk
JNzl2urKucCwelsbf6agCXVszFIwiGqmuOR3oNGXODBt4xbY6IV9Op6Un2ykuUf6
M/C/qUoMcFYxRh878SLFHS98VlTxHgQJXrvh8qO/sZ6kj3Ss6BgawuTr3G+xaRbz
P4OxC/gFqHTb0f+JDciX4yksK6xuRtDXBJVJSaHUuCnzE/DXQgszmbe0HB5xHnHu
KkfT1zVNGCgeyZj7O5jwDchZ0EgKhBlkygAQi6XtrwnJInat7xf9v5O3gr4Wqj7W
GUem9uku90cCAwEAAaOBtjCBszAMBgNVHRMBAf8EAjAAMB0GA1UdDgQWBBThOpQW
w4IrEl5M6XiOpMUbrJyw0zAfBgNVHSMEGDAWgBSekjrzIDY/acw/ItpB9joPmiLu
9DAdBgNVHSUEFjAUBggrBgEFBQcDAQYIKwYBBQUHAwIwRAYDVR0RBD0wO4IPd3d3
LmV4YW1wbGUub3JnghBtYWlsLmV4YW1wbGUub3JnghBtYWlsLmV4YW1wbGUuY29t
hwR/AAABMA0GCSqGSIb3DQEBCwUAA4IBAQCFXigLRsm8/X3bSK3NKneqa24sWbrx
QviQkeAavKxhSyO5PETO2jw125J25M7za3Kp5KtKcVA8Cvdf1TXcUzM4bcPGYdiI
zCv/c2FijN2j6gXFoHn6urbVd7ttJaGrr8vFSlrEOoMUPKWixFHWqDyXqjhMnpR9
Pa625uwj4T9yGMJkF+mWb6QUdTam6F3uoSbjB3FwtlLW1o8u0DpGU40ksUjbOuNt
KA2z/frB8njEJqX7ZIxGCVEEA7kOi5ZnEGPq1rkWx3o9pJR3dbaB1HVM8Gx+/m/b
8TK6/1bB10mLAljX34sc6Fa5pV38D8mTxL1nz9o51YOowXKNe2clPRSd
-----END CERTIFICATE-----
