Certificate:
    Data:
        Version: 3 (0x2)
        Serial Number: 1 (0x1)
    Signature Algorithm: sha256WithRSAEncryption
        Issuer: CN=QUIC Server Root CA
        Validity
            Not Before: Aug 16 08:03:52 2016 GMT
            Not After : Aug 19 08:03:52 2116 GMT
        Subject: C=US, ST=California, L=Mountain View, O=QUIC Server, CN=127.0.0.1
        Subject Public Key Info:
            Public Key Algorithm: rsaEncryption
                Public-Key: (2048 bit)
                Modulus:
                    00:bb:8e:d9:50:b8:78:f0:74:f9:5b:c6:7f:90:88:
                    ee:67:4e:b0:33:c3:69:16:24:b3:15:32:0d:cf:d9:
                    23:95:01:b5:1e:71:da:04:60:dd:66:ba:33:e5:cc:
                    7b:16:a1:f5:ea:63:94:49:69:3b:98:60:cf:14:ab:
                    c5:c7:17:2b:21:56:59:94:cc:d8:86:a0:c4:1f:a7:
                    3c:d6:8b:25:c2:75:e3:39:df:79:01:86:97:cc:e0:
                    71:31:0a:86:f4:05:41:ae:bd:52:e5:56:24:d4:72:
                    4b:8a:a4:0d:e5:9c:98:a5:c7:15:71:50:f3:d4:15:
                    26:84:40:07:1b:4e:16:14:3b:5a:66:22:1c:bd:81:
                    2e:d3:4f:92:2f:d3:1a:04:b5:09:38:59:fd:ab:97:
                    f2:12:c6:06:7a:d0:eb:cc:e5:82:b0:17:aa:b1:83:
                    8b:3a:ef:df:9f:d9:6f:6d:6c:33:cd:db:c9:e6:5c:
                    f9:3d:08:de:f8:8d:24:29:30:93:e2:0a:fd:13:61:
                    66:bf:29:b6:39:c2:0a:13:43:fa:b5:13:d6:e1:29:
                    b4:f9:7d:c8:6f:9e:1b:36:71:9d:3b:58:b1:cf:ec:
                    26:cf:54:21:90:65:a5:15:9d:27:87:89:fc:65:03:
                    31:9d:8d:64:a2:de:75:ba:aa:4b:11:53:7d:04:40:
                    c4:0f
                Exponent: 65537 (0x10001)
        X509v3 extensions:
            X509v3 Basic Constraints: critical
                CA:FALSE
            X509v3 Subject Key Identifier: 
                DF:A7:CD:96:40:AA:BE:56:36:83:8B:10:09:CC:F2:D3:C5:90:55:F3
            X509v3 Authority Key Identifier: 
                keyid:78:23:72:E6:B6:E1:03:E3:08:E4:9A:F3:A9:AA:74:D1:3C:DD:67:9A

            X509v3 Extended Key Usage: 
                TLS Web Server Authentication, TLS Web Client Authentication
            X509v3 Subject Alternative Name: 
                DNS:www.example.org, DNS:mail.example.org, DNS:mail.example.com, IP Address:127.0.0.1
    Signature Algorithm: sha256WithRSAEncryption
         8d:0b:95:68:59:32:74:5d:2d:3a:f5:e7:d9:64:ec:93:1e:c0:
         86:9f:90:93:25:81:bc:04:38:96:2e:36:8a:fd:06:82:2b:be:
         d9:26:b3:ab:9f:1f:ae:ab:95:84:a2:ff:8c:9e:d2:df:66:e2:
         7f:97:f2:1e:f1:d6:e9:24:90:96:d6:ac:1c:ed:c9:c2:1b:65:
         aa:0a:7d:3f:b4:49:7c:a4:8f:87:b2:ac:09:db:b4:95:7a:3e:
         07:41:29:07:75:b5:a3:f6:3d:58:39:dd:a0:95:52:31:de:47:
         f5:da:a3:e3:38:7b:6d:d3:42:4d:60:d3:34:7d:5c:2f:9d:f8:
         1e:d2:ce:f4:3b:5e:69:42:79:7c:8c:17:ae:81:c6:9c:83:83:
         80:1b:3a:07:bb:9e:b1:3c:e7:a8:dd:a1:b8:a8:00:54:fd:63:
         db:97:13:83:03:8d:52:60:8c:78:59:df:54:f9:42:e8:9f:8a:
         fc:be:15:f8:fc:ef:47:ef:54:cc:96:13:db:eb:1e:4b:4e:89:
         d0:df:e0:6e:bf:18:23:fd:2b:4a:f3:ea:4d:f8:e2:4d:8f:66:
         3d:97:56:5f:54:63:31:92:15:2b:97:c9:2e:c6:03:09:27:83:
         17:35:4f:ce:d9:c2:82:81:99:ab:cf:3e:61:31:7d:63:21:26:
         71:82:8e:15
-----BEGIN CERTIFICATE-----
MIIDtDCCApygAwIBAgIBATANBgkqhkiG9w0BAQsFADAeMRwwGgYDVQQDDBNRVUlD
IFNlcnZlciBSb290IENBMB4XDTE2MDgxNjA4MDM1MloXDTE2MDgxOTA4MDM1Mlow
ZDELMAkGA1UEBhMCVVMxEzARBgNVBAgMCkNhbGlmb3JuaWExFjAUBgNVBAcMDU1v
dW50YWluIFZpZXcxFDASBgNVBAoMC1FVSUMgU2VydmVyMRIwEAYDVQQDDAkxMjcu
MC4wLjEwggEiMA0GCSqGSIb3DQEBAQUAA4IBDwAwggEKAoIBAQC7jtlQuHjwdPlb
xn+QiO5nTrAzw2kWJLMVMg3P2SOVAbUecdoEYN1mujPlzHsWofXqY5RJaTuYYM8U
q8XHFyshVlmUzNiGoMQfpzzWiyXCdeM533kBhpfM4HExCob0BUGuvVLlViTUckuK
pA3lnJilxxVxUPPUFSaEQAcbThYUO1pmIhy9gS7TT5Iv0xoEtQk4Wf2rl/ISxgZ6
0OvM5YKwF6qxg4s679+f2W9tbDPN28nmXPk9CN74jSQpMJPiCv0TYWa/KbY5wgoT
Q/q1E9bhKbT5fchvnhs2cZ07WLHP7CbPVCGQZaUVnSeHifxlAzGdjWSi3nW6qksR
U30EQMQPAgMBAAGjgbYwgbMwDAYDVR0TAQH/BAIwADAdBgNVHQ4EFgQU36fNlkCq
vlY2g4sQCczy08WQVfMwHwYDVR0jBBgwFoAUeCNy5rbhA+MI5Jrzqap00TzdZ5ow
HQYDVR0lBBYwFAYIKwYBBQUHAwEGCCsGAQUFBwMCMEQGA1UdEQQ9MDuCD3d3dy5l
eGFtcGxlLm9yZ4IQbWFpbC5leGFtcGxlLm9yZ4IQbWFpbC5leGFtcGxlLmNvbYcE
fwAAATANBgkqhkiG9w0BAQsFAAOCAQEAjQuVaFkydF0tOvXn2WTskx7Ahp+QkyWB
vAQ4li42iv0Ggiu+2Sazq58frquVhKL/jJ7S32bif5fyHvHW6SSQltasHO3Jwhtl
qgp9P7RJfKSPh7KsCdu0lXo+B0EpB3W1o/Y9WDndoJVSMd5H9dqj4zh7bdNCTWDT
NH1cL534HtLO9DteaUJ5fIwXroHGnIODgBs6B7uesTznqN2huKgAVP1j25cTgwON
UmCMeFnfVPlC6J+K/L4V+PzvR+9UzJYT2+seS06J0N/gbr8YI/0rSvPqTfjiTY9m
PZdWX1RjMZIVK5fJLsYDCSeDFzVPztnCgoGZq88+YTF9YyEmcYKOFQ==
-----END CERTIFICATE-----
