Certificate:
    Data:
        Version: 3 (0x2)
        Serial Number: 9232895815886228440 (0x8021d5d39a16cbd8)
    Signature Algorithm: sha256WithRSAEncryption
        Issuer: CN=QUIC Server Root CA
        Validity
            Not Before: Jan 25 09:30:43 2018 GMT
            Not After : Jan  1 09:30:43 2118 GMT
        Subject: CN=QUIC Server Root CA
        Subject Public Key Info:
            Public Key Algorithm: rsaEncryption
                Public-Key: (2048 bit)
                Modulus:
                    00:be:3e:0e:1f:3d:83:31:42:0a:f1:31:16:42:64:
                    e5:92:59:50:af:ef:3b:37:f8:48:b6:fa:d6:6a:1d:
                    25:8c:33:cf:33:3d:04:56:be:bd:29:48:9a:61:62:
                    9f:60:6a:c4:a3:b3:f5:29:7b:eb:0d:30:da:1a:df:
                    6c:96:96:d2:23:68:94:be:d5:71:7d:47:0c:36:c0:
                    5d:f1:3a:02:3c:4d:d2:e9:74:4f:30:e8:4f:ff:41:
                    5b:71:e7:4f:c7:40:7d:10:89:05:a1:93:0e:4e:91:
                    b1:89:79:2c:df:25:5b:75:3d:d8:34:c1:41:4a:d0:
                    44:f5:a6:95:ef:f0:aa:1c:2d:c3:df:c4:73:36:56:
                    10:9a:8b:1a:85:e4:c0:73:4f:16:f3:e6:79:c0:63:
                    6f:40:86:cc:a5:fe:3c:09:53:02:52:c6:ad:a8:fe:
                    f9:98:61:c9:34:28:2a:cd:64:e5:80:80:36:c8:75:
                    16:c4:70:19:14:7f:b6:73:31:fa:a0:0f:6b:1a:11:
                    db:18:0e:92:5a:f3:51:7f:45:af:7c:c2:94:7c:88:
                    08:2a:17:01:0b:f6:cd:ab:9b:3d:f6:5d:b6:91:ce:
                    7d:af:d0:5b:12:dc:d6:57:ca:e8:14:d9:5c:9c:67:
                    33:62:2a:e8:46:de:35:e2:56:84:fe:46:53:f3:05:
                    ad:45
                Exponent: 65537 (0x10001)
        X509v3 extensions:
            X509v3 Basic Constraints: critical
                CA:TRUE
            X509v3 Subject Key Identifier: 
                A2:22:FE:23:07:6A:E0:06:DC:49:31:B4:20:58:93:75:1A:60:67:D9
            X509v3 Key Usage: critical
                Certificate Sign, CRL Sign
    Signature Algorithm: sha256WithRSAEncryption
         b0:e6:e3:ac:66:04:19:2b:b7:bb:2c:15:9a:d9:82:00:4e:29:
         6e:7e:47:44:71:0a:d2:ab:5d:72:93:37:4f:c8:5a:a8:92:d6:
         48:6b:92:5f:51:e7:b4:58:bd:60:69:a7:79:b2:db:d7:79:c3:
         01:2a:d6:10:63:8f:9e:ed:29:cb:32:3a:bf:e5:04:a4:30:b9:
         81:9d:92:b4:76:77:f3:e4:df:fc:aa:5a:22:68:11:1c:19:1c:
         c1:74:5b:6e:79:85:f6:f6:f3:69:f0:66:d7:85:6f:79:b5:77:
         13:dc:79:dc:88:5b:27:47:bb:a0:0a:24:47:e0:31:50:e1:07:
         09:00:43:25:0f:88:e3:bc:5a:80:69:e4:33:ba:13:e9:bf:d5:
         b6:70:59:28:e3:c6:ef:90:ff:4f:e8:6d:a8:64:e4:41:ee:b1:
         c7:6b:ae:af:a9:08:21:a6:a4:65:01:4b:dd:dc:00:5c:02:ee:
         e4:8c:f0:d1:05:6d:4a:f3:a1:f3:13:c8:3f:37:8f:b5:01:68:
         bb:82:86:55:7d:06:09:42:5f:1c:ef:b6:d9:44:5d:91:7c:e4:
         f9:de:20:58:50:e7:aa:22:07:5f:59:87:9b:be:d6:1a:64:71:
         10:cc:7b:54:b9:e7:50:cb:1f:b6:f9:7f:51:3a:ca:22:81:7b:
         67:20:cb:f7
-----BEGIN CERTIFICATE-----
MIIDAzCCAeugAwIBAgIJAIAh1dOaFsvYMA0GCSqGSIb3DQEBCwUAMB4xHDAaBgNV
BAMME1FVSUMgU2VydmVyIFJvb3QgQ0EwIBcNMTgwMTI1MDkzMDQzWhgPMjExODAx
MDEwOTMwNDNaMB4xHDAaBgNVBAMME1FVSUMgU2VydmVyIFJvb3QgQ0EwggEiMA0G
CSqGSIb3DQEBAQUAA4IBDwAwggEKAoIBAQC+Pg4fPYMxQgrxMRZCZOWSWVCv7zs3
+Ei2+tZqHSWMM88zPQRWvr0pSJphYp9gasSjs/Upe+sNMNoa32yWltIjaJS+1XF9
Rww2wF3xOgI8TdLpdE8w6E//QVtx50/HQH0QiQWhkw5OkbGJeSzfJVt1Pdg0wUFK
0ET1ppXv8KocLcPfxHM2VhCaixqF5MBzTxbz5nnAY29Ahsyl/jwJUwJSxq2o/vmY
Yck0KCrNZOWAgDbIdRbEcBkUf7ZzMfqgD2saEdsYDpJa81F/Ra98wpR8iAgqFwEL
9s2rmz32XbaRzn2v0FsS3NZXyugU2VycZzNiKuhG3jXiVoT+RlPzBa1FAgMBAAGj
QjBAMA8GA1UdEwEB/wQFMAMBAf8wHQYDVR0OBBYEFKIi/iMHauAG3EkxtCBYk3Ua
YGfZMA4GA1UdDwEB/wQEAwIBBjANBgkqhkiG9w0BAQsFAAOCAQEAsObjrGYEGSu3
uywVmtmCAE4pbn5HRHEK0qtdcpM3T8haqJLWSGuSX1HntFi9YGmnebLb13nDASrW
EGOPnu0pyzI6v+UEpDC5gZ2StHZ38+Tf/KpaImgRHBkcwXRbbnmF9vbzafBm14Vv
ebV3E9x53IhbJ0e7oAokR+AxUOEHCQBDJQ+I47xagGnkM7oT6b/VtnBZKOPG75D/
T+htqGTkQe6xx2uur6kIIaakZQFL3dwAXALu5Izw0QVtSvOh8xPIPzePtQFou4KG
VX0GCUJfHO+22URdkXzk+d4gWFDnqiIHX1mHm77WGmRxEMx7VLnnUMsftvl/UTrK
IoF7ZyDL9w==
-----END CERTIFICATE-----
